target datalayout = "e-m:e-p270:32:32-p271:32:32-p272:64:64-i64:64-i128:128-f80:128-n8:16:32:64-S128"
target triple = "x86_64-unknown-linux-gnu"

%"class.Assimp::ObjFileParser" = type { %"class.__gnu_cxx::__normal_iterator", %"class.__gnu_cxx::__normal_iterator", %"class.std::unique_ptr", i32, [4096 x i8], ptr, ptr, %"class.std::__cxx11::basic_string" }
%"class.__gnu_cxx::__normal_iterator" = type { ptr }
%"class.std::unique_ptr" = type { %"struct.std::__uniq_ptr_data" }
%"struct.std::__uniq_ptr_data" = type { %"class.std::__uniq_ptr_impl" }
%"class.std::__uniq_ptr_impl" = type { %"class.std::tuple" }
%"class.std::tuple" = type { %"struct.std::_Tuple_impl" }
%"struct.std::_Tuple_impl" = type { %"struct.std::_Head_base.1" }
%"struct.std::_Head_base.1" = type { ptr }
%"class.std::__cxx11::basic_string" = type { %"struct.std::__cxx11::basic_string<char>::_Alloc_hider", i64, %union.anon }
%"struct.std::__cxx11::basic_string<char>::_Alloc_hider" = type { ptr }
%union.anon = type { i64, [8 x i8] }

@.str.21 = private unnamed_addr constant [4 x i8] c"nan\00", align 1
@.str.22 = private unnamed_addr constant [4 x i8] c"inf\00", align 1

; Function Attrs: mustprogress nounwind uwtable
define linkonce_odr hidden noundef zeroext i1 @_ZN6Assimp7IsSpaceIcEEbT_(i8 noundef signext %in) #0 comdat {
entry:
  %in.addr = alloca i8, align 1
  store i8 %in, ptr %in.addr, align 1
  %0 = load i8, ptr %in.addr, align 1
  %conv = sext i8 %0 to i32
  %cmp = icmp eq i32 %conv, 32
  br i1 %cmp, label %lor.end, label %lor.rhs

lor.rhs:                                          ; preds = %entry
  %1 = load i8, ptr %in.addr, align 1
  %conv1 = sext i8 %1 to i32
  %cmp2 = icmp eq i32 %conv1, 9
  br label %lor.end

lor.end:                                          ; preds = %lor.rhs, %entry
  %2 = phi i1 [ true, %entry ], [ %cmp2, %lor.rhs ]
  ret i1 %2
}

; Function Attrs: mustprogress uwtable
define linkonce_odr hidden noundef zeroext i1 @_ZN6Assimp16IsSpaceOrNewLineIcEEbT_(i8 noundef signext %in) #2 comdat {
entry:
  %in.addr = alloca i8, align 1
  store i8 %in, ptr %in.addr, align 1
  %0 = load i8, ptr %in.addr, align 1
  %call = call noundef zeroext i1 @_ZN6Assimp7IsSpaceIcEEbT_(i8 noundef signext %0)
  br i1 %call, label %lor.end, label %lor.rhs

lor.rhs:                                          ; preds = %entry
  %1 = load i8, ptr %in.addr, align 1
  %call1 = call noundef zeroext i1 @_ZN6Assimp9IsLineEndIcEEbT_(i8 noundef signext %1)
  br label %lor.end

lor.end:                                          ; preds = %lor.rhs, %entry
  %2 = phi i1 [ true, %entry ], [ %call1, %lor.rhs ]
  ret i1 %2
}

; Function Attrs: mustprogress nounwind uwtable
define linkonce_odr hidden noundef i32 @_ZN6Assimp15ASSIMP_strincmpEPKcS1_j(ptr noundef %s1, ptr noundef %s2, i32 noundef %n) #0 comdat {
entry:
  %retval = alloca i32, align 4
  %s1.addr = alloca ptr, align 8
  %s2.addr = alloca ptr, align 8
  %n.addr = alloca i32, align 4
  store ptr %s1, ptr %s1.addr, align 8
  store ptr %s2, ptr %s2.addr, align 8
  store i32 %n, ptr %n.addr, align 4
  %0 = load i32, ptr %n.addr, align 4
  %tobool = icmp ne i32 %0, 0
  br i1 %tobool, label %if.end, label %if.then

if.then:                                          ; preds = %entry
  store i32 0, ptr %retval, align 4
  br label %return

if.end:                                           ; preds = %entry
  %1 = load ptr, ptr %s1.addr, align 8
  %2 = load ptr, ptr %s2.addr, align 8
  %3 = load i32, ptr %n.addr, align 4
  %conv = zext i32 %3 to i64
  %call = call i32 @strncasecmp(ptr noundef %1, ptr noundef %2, i64 noundef %conv) #17
  store i32 %call, ptr %retval, align 4
  br label %return

return:                                           ; preds = %if.end, %if.then
  %4 = load i32, ptr %retval, align 4
  ret i32 %4
}

; Function Attrs: mustprogress uwtable
define linkonce_odr hidden noundef zeroext i1 @_ZN6Assimp10SkipSpacesIcEEbPKT_PS3_(ptr noundef %in, ptr noundef %out) #2 comdat {
entry:
  %in.addr = alloca ptr, align 8
  %out.addr = alloca ptr, align 8
  store ptr %in, ptr %in.addr, align 8
  store ptr %out, ptr %out.addr, align 8
  br label %while.cond

while.cond:                                       ; preds = %while.body, %entry
  %0 = load ptr, ptr %in.addr, align 8
  %1 = load i8, ptr %0, align 1
  %conv = sext i8 %1 to i32
  %cmp = icmp eq i32 %conv, 32
  br i1 %cmp, label %lor.end, label %lor.rhs

lor.rhs:                                          ; preds = %while.cond
  %2 = load ptr, ptr %in.addr, align 8
  %3 = load i8, ptr %2, align 1
  %conv1 = sext i8 %3 to i32
  %cmp2 = icmp eq i32 %conv1, 9
  br label %lor.end

lor.end:                                          ; preds = %lor.rhs, %while.cond
  %4 = phi i1 [ true, %while.cond ], [ %cmp2, %lor.rhs ]
  br i1 %4, label %while.body, label %while.end

while.body:                                       ; preds = %lor.end
  %5 = load ptr, ptr %in.addr, align 8
  %incdec.ptr = getelementptr inbounds i8, ptr %5, i32 1
  store ptr %incdec.ptr, ptr %in.addr, align 8
  br label %while.cond, !llvm.loop !33

while.end:                                        ; preds = %lor.end
  %6 = load ptr, ptr %in.addr, align 8
  %7 = load ptr, ptr %out.addr, align 8
  store ptr %6, ptr %7, align 8
  %8 = load ptr, ptr %in.addr, align 8
  %9 = load i8, ptr %8, align 1
  %call = call noundef zeroext i1 @_ZN6Assimp9IsLineEndIcEEbT_(i8 noundef signext %9)
  %lnot = xor i1 %call, true
  ret i1 %lnot
}

; Function Attrs: mustprogress uwtable
define linkonce_odr hidden void @_ZN6Assimp9SkipTokenERPKc(ptr noundef nonnull align 8 dereferenceable(8) %in) #2 comdat {
entry:
  %in.addr = alloca ptr, align 8
  store ptr %in, ptr %in.addr, align 8
  %0 = load ptr, ptr %in.addr, align 8
  %call = call noundef zeroext i1 @_ZN6Assimp10SkipSpacesIcEEbPPKT_(ptr noundef %0)
  br label %while.cond

while.cond:                                       ; preds = %while.body, %entry
  %1 = load ptr, ptr %in.addr, align 8
  %2 = load ptr, ptr %1, align 8
  %3 = load i8, ptr %2, align 1
  %call1 = call noundef zeroext i1 @_ZN6Assimp16IsSpaceOrNewLineIcEEbT_(i8 noundef signext %3)
  %lnot = xor i1 %call1, true
  br i1 %lnot, label %while.body, label %while.end

while.body:                                       ; preds = %while.cond
  %4 = load ptr, ptr %in.addr, align 8
  %5 = load ptr, ptr %4, align 8
  %incdec.ptr = getelementptr inbounds i8, ptr %5, i32 1
  store ptr %incdec.ptr, ptr %4, align 8
  br label %while.cond, !llvm.loop !23

while.end:                                        ; preds = %while.cond
  ret void
}

; Function Attrs: mustprogress uwtable
define internal noundef zeroext i1 @_ZN6AssimpL10isNanOrInfEPKc(ptr noundef %in) #2 {
entry:
  %in.addr = alloca ptr, align 8
  store ptr %in, ptr %in.addr, align 8
  %0 = load ptr, ptr %in.addr, align 8
  %arrayidx = getelementptr inbounds i8, ptr %0, i64 0
  %1 = load i8, ptr %arrayidx, align 1
  %conv = sext i8 %1 to i32
  %cmp = icmp eq i32 %conv, 78
  br i1 %cmp, label %land.lhs.true, label %lor.lhs.false

lor.lhs.false:                                    ; preds = %entry
  %2 = load ptr, ptr %in.addr, align 8
  %arrayidx1 = getelementptr inbounds i8, ptr %2, i64 0
  %3 = load i8, ptr %arrayidx1, align 1
  %conv2 = sext i8 %3 to i32
  %cmp3 = icmp eq i32 %conv2, 110
  br i1 %cmp3, label %land.lhs.true, label %lor.rhs

land.lhs.true:                                    ; preds = %lor.lhs.false, %entry
  %4 = load ptr, ptr %in.addr, align 8
  %call = call noundef i32 @_ZN6Assimp15ASSIMP_strincmpEPKcS1_j(ptr noundef %4, ptr noundef @.str.21, i32 noundef 3)
  %cmp4 = icmp eq i32 %call, 0
  br i1 %cmp4, label %lor.end, label %lor.rhs

lor.rhs:                                          ; preds = %land.lhs.true, %lor.lhs.false
  %5 = load ptr, ptr %in.addr, align 8
  %arrayidx5 = getelementptr inbounds i8, ptr %5, i64 0
  %6 = load i8, ptr %arrayidx5, align 1
  %conv6 = sext i8 %6 to i32
  %cmp7 = icmp eq i32 %conv6, 73
  br i1 %cmp7, label %land.rhs, label %lor.lhs.false8

lor.lhs.false8:                                   ; preds = %lor.rhs
  %7 = load ptr, ptr %in.addr, align 8
  %arrayidx9 = getelementptr inbounds i8, ptr %7, i64 0
  %8 = load i8, ptr %arrayidx9, align 1
  %conv10 = sext i8 %8 to i32
  %cmp11 = icmp eq i32 %conv10, 105
  br i1 %cmp11, label %land.rhs, label %land.end

land.rhs:                                         ; preds = %lor.lhs.false8, %lor.rhs
  %9 = load ptr, ptr %in.addr, align 8
  %call12 = call noundef i32 @_ZN6Assimp15ASSIMP_strincmpEPKcS1_j(ptr noundef %9, ptr noundef @.str.22, i32 noundef 3)
  %cmp13 = icmp eq i32 %call12, 0
  br label %land.end

land.end:                                         ; preds = %land.rhs, %lor.lhs.false8
  %10 = phi i1 [ false, %lor.lhs.false8 ], [ %cmp13, %land.rhs ]
  br label %lor.end

lor.end:                                          ; preds = %land.end, %land.lhs.true
  %11 = phi i1 [ true, %land.lhs.true ], [ %10, %land.end ]
  ret i1 %11
}

; Function Attrs: mustprogress nounwind uwtable
define linkonce_odr hidden noundef zeroext i1 @_ZN6Assimp9IsNumericIcEEbT_(i8 noundef signext %in) #0 comdat {
entry:
  %in.addr = alloca i8, align 1
  store i8 %in, ptr %in.addr, align 1
  %0 = load i8, ptr %in.addr, align 1
  %conv = sext i8 %0 to i32
  %cmp = icmp sge i32 %conv, 48
  br i1 %cmp, label %land.lhs.true, label %lor.lhs.false

land.lhs.true:                                    ; preds = %entry
  %1 = load i8, ptr %in.addr, align 1
  %conv1 = sext i8 %1 to i32
  %cmp2 = icmp sle i32 %conv1, 57
  br i1 %cmp2, label %lor.end, label %lor.lhs.false

lor.lhs.false:                                    ; preds = %land.lhs.true, %entry
  %2 = load i8, ptr %in.addr, align 1
  %conv3 = sext i8 %2 to i32
  %cmp4 = icmp eq i32 45, %conv3
  br i1 %cmp4, label %lor.end, label %lor.rhs

lor.rhs:                                          ; preds = %lor.lhs.false
  %3 = load i8, ptr %in.addr, align 1
  %conv5 = sext i8 %3 to i32
  %cmp6 = icmp eq i32 43, %conv5
  br label %lor.end

lor.end:                                          ; preds = %lor.rhs, %lor.lhs.false, %land.lhs.true
  %4 = phi i1 [ true, %lor.lhs.false ], [ true, %land.lhs.true ], [ %cmp6, %lor.rhs ]
  ret i1 %4
}

; Function Attrs: mustprogress uwtable
define linkonce_odr hidden noundef zeroext i1 @_ZN6Assimp10SkipSpacesIcEEbPPKT_(ptr noundef %inout) #2 comdat {
entry:
  %inout.addr = alloca ptr, align 8
  store ptr %inout, ptr %inout.addr, align 8
  %0 = load ptr, ptr %inout.addr, align 8
  %1 = load ptr, ptr %0, align 8
  %2 = load ptr, ptr %inout.addr, align 8
  %call = call noundef zeroext i1 @_ZN6Assimp10SkipSpacesIcEEbPKT_PS3_(ptr noundef %1, ptr noundef %2)
  ret i1 %call
}

; Function Attrs: mustprogress nounwind uwtable
define linkonce_odr hidden noundef zeroext i1 @_ZN6Assimp9IsLineEndIcEEbT_(i8 noundef signext %in) #0 comdat {
entry:
  %in.addr = alloca i8, align 1
  store i8 %in, ptr %in.addr, align 1
  %0 = load i8, ptr %in.addr, align 1
  %conv = sext i8 %0 to i32
  %cmp = icmp eq i32 %conv, 13
  br i1 %cmp, label %lor.end, label %lor.lhs.false

lor.lhs.false:                                    ; preds = %entry
  %1 = load i8, ptr %in.addr, align 1
  %conv1 = sext i8 %1 to i32
  %cmp2 = icmp eq i32 %conv1, 10
  br i1 %cmp2, label %lor.end, label %lor.lhs.false3

lor.lhs.false3:                                   ; preds = %lor.lhs.false
  %2 = load i8, ptr %in.addr, align 1
  %conv4 = sext i8 %2 to i32
  %cmp5 = icmp eq i32 %conv4, 0
  br i1 %cmp5, label %lor.end, label %lor.rhs

lor.rhs:                                          ; preds = %lor.lhs.false3
  %3 = load i8, ptr %in.addr, align 1
  %conv6 = sext i8 %3 to i32
  %cmp7 = icmp eq i32 %conv6, 12
  br label %lor.end

lor.end:                                          ; preds = %lor.rhs, %lor.lhs.false3, %lor.lhs.false, %entry
  %4 = phi i1 [ true, %lor.lhs.false3 ], [ true, %lor.lhs.false ], [ true, %entry ], [ %cmp7, %lor.rhs ]
  ret i1 %4
}

; Function Attrs: mustprogress uwtable
define internal noundef zeroext i1 @_ZN6AssimpL19isDataDefinitionEndEPKc(ptr noundef %tmp) #2 {
entry:
  %retval = alloca i1, align 1
  %tmp.addr = alloca ptr, align 8
  store ptr %tmp, ptr %tmp.addr, align 8
  %0 = load ptr, ptr %tmp.addr, align 8
  %1 = load i8, ptr %0, align 1
  %conv = sext i8 %1 to i32
  %cmp = icmp eq i32 %conv, 92
  br i1 %cmp, label %if.then, label %if.end2

if.then:                                          ; preds = %entry
  %2 = load ptr, ptr %tmp.addr, align 8
  %incdec.ptr = getelementptr inbounds i8, ptr %2, i32 1
  store ptr %incdec.ptr, ptr %tmp.addr, align 8
  %3 = load ptr, ptr %tmp.addr, align 8
  %4 = load i8, ptr %3, align 1
  %call = call noundef zeroext i1 @_ZN6Assimp9IsLineEndIcEEbT_(i8 noundef signext %4)
  br i1 %call, label %if.then1, label %if.end

if.then1:                                         ; preds = %if.then
  store i1 true, ptr %retval, align 1
  br label %return

if.end:                                           ; preds = %if.then
  br label %if.end2

if.end2:                                          ; preds = %if.end, %entry
  store i1 false, ptr %retval, align 1
  br label %return

return:                                           ; preds = %if.end2, %if.then1
  %5 = load i1, ptr %retval, align 1
  ret i1 %5
}

; Function Attrs: mustprogress nounwind uwtable
define linkonce_odr noundef nonnull align 1 dereferenceable(1) ptr @_ZNK9__gnu_cxx17__normal_iteratorIPcSt6vectorIcSaIcEEEixEl(ptr noundef nonnull align 8 dereferenceable(8) %this, i64 noundef %__n) #0 comdat align 2 {
entry:
  %this.addr = alloca ptr, align 8
  %__n.addr = alloca i64, align 8
  store ptr %this, ptr %this.addr, align 8
  store i64 %__n, ptr %__n.addr, align 8
  %this1 = load ptr, ptr %this.addr, align 8
  %_M_current = getelementptr inbounds %"class.__gnu_cxx::__normal_iterator", ptr %this1, i32 0, i32 0
  %0 = load ptr, ptr %_M_current, align 8
  %1 = load i64, ptr %__n.addr, align 8
  %arrayidx = getelementptr inbounds i8, ptr %0, i64 %1
  ret ptr %arrayidx
}

; Function Attrs: mustprogress uwtable
define noundef i64 @_ZN6Assimp13ObjFileParser32getNumComponentsInDataDefinitionEv(ptr noundef nonnull align 8 dereferenceable(4176) %this) #2 align 2 {
entry:
  %this.addr = alloca ptr, align 8
  %numComponents = alloca i64, align 8
  %tmp = alloca ptr, align 8
  %end_of_definition = alloca i8, align 1
  %isNum = alloca i8, align 1
  store ptr %this, ptr %this.addr, align 8
  %this1 = load ptr, ptr %this.addr, align 8
  store i64 0, ptr %numComponents, align 8
  %m_DataIt = getelementptr inbounds %"class.Assimp::ObjFileParser", ptr %this1, i32 0, i32 0
  %call = call noundef nonnull align 1 dereferenceable(1) ptr @_ZNK9__gnu_cxx17__normal_iteratorIPcSt6vectorIcSaIcEEEixEl(ptr noundef nonnull align 8 dereferenceable(8) %m_DataIt, i64 noundef 0) #14
  store ptr %call, ptr %tmp, align 8
  store i8 0, ptr %end_of_definition, align 1
  br label %while.cond

while.cond:                                       ; preds = %if.end16, %entry
  %0 = load i8, ptr %end_of_definition, align 1
  %tobool = trunc i8 %0 to i1
  %lnot = xor i1 %tobool, true
  br i1 %lnot, label %while.body, label %while.end

while.body:                                       ; preds = %while.cond
  %1 = load ptr, ptr %tmp, align 8
  %call2 = call noundef zeroext i1 @_ZN6AssimpL19isDataDefinitionEndEPKc(ptr noundef %1)
  br i1 %call2, label %if.then, label %if.else

if.then:                                          ; preds = %while.body
  %2 = load ptr, ptr %tmp, align 8
  %add.ptr = getelementptr inbounds i8, ptr %2, i64 2
  store ptr %add.ptr, ptr %tmp, align 8
  br label %if.end5

if.else:                                          ; preds = %while.body
  %3 = load ptr, ptr %tmp, align 8
  %4 = load i8, ptr %3, align 1
  %call3 = call noundef zeroext i1 @_ZN6Assimp9IsLineEndIcEEbT_(i8 noundef signext %4)
  br i1 %call3, label %if.then4, label %if.end

if.then4:                                         ; preds = %if.else
  store i8 1, ptr %end_of_definition, align 1
  br label %if.end

if.end:                                           ; preds = %if.then4, %if.else
  br label %if.end5

if.end5:                                          ; preds = %if.end, %if.then
  %call6 = call noundef zeroext i1 @_ZN6Assimp10SkipSpacesIcEEbPPKT_(ptr noundef %tmp)
  br i1 %call6, label %if.end8, label %if.then7

if.then7:                                         ; preds = %if.end5
  br label %while.end

if.end8:                                          ; preds = %if.end5
  %5 = load ptr, ptr %tmp, align 8
  %6 = load i8, ptr %5, align 1
  %call9 = call noundef zeroext i1 @_ZN6Assimp9IsNumericIcEEbT_(i8 noundef signext %6)
  br i1 %call9, label %lor.end, label %lor.rhs

lor.rhs:                                          ; preds = %if.end8
  %7 = load ptr, ptr %tmp, align 8
  %call10 = call noundef zeroext i1 @_ZN6AssimpL10isNanOrInfEPKc(ptr noundef %7)
  br label %lor.end

lor.end:                                          ; preds = %lor.rhs, %if.end8
  %8 = phi i1 [ true, %if.end8 ], [ %call10, %lor.rhs ]
  %frombool = zext i1 %8 to i8
  store i8 %frombool, ptr %isNum, align 1
  call void @_ZN6Assimp9SkipTokenERPKc(ptr noundef nonnull align 8 dereferenceable(8) %tmp)
  %9 = load i8, ptr %isNum, align 1
  %tobool11 = trunc i8 %9 to i1
  br i1 %tobool11, label %if.then12, label %if.end13

if.then12:                                        ; preds = %lor.end
  %10 = load i64, ptr %numComponents, align 8
  %inc = add i64 %10, 1
  store i64 %inc, ptr %numComponents, align 8
  br label %if.end13

if.end13:                                         ; preds = %if.then12, %lor.end
  %call14 = call noundef zeroext i1 @_ZN6Assimp10SkipSpacesIcEEbPPKT_(ptr noundef %tmp)
  br i1 %call14, label %if.end16, label %if.then15

if.then15:                                        ; preds = %if.end13
  br label %while.end

if.end16:                                         ; preds = %if.end13
  br label %while.cond, !llvm.loop !11

while.end:                                        ; preds = %if.then15, %if.then7, %while.cond
  %11 = load i64, ptr %numComponents, align 8
  ret i64 %11
}