; Function Attrs: mustprogress nofree nounwind willreturn memory(read) uwtable
define noundef i64 @_ZN6Assimp13ObjFileParser32getNumComponentsInDataDefinitionEv(ptr nocapture noundef nonnull readonly align 8 dereferenceable(4176) %this) local_unnamed_addr #10 align 2 {
entry:
  %0 = load ptr, ptr %this, align 8
  %.pre = load i8, ptr %0, align 1
  br label %while.body

while.body:                                       ; preds = %entry, %_ZN6Assimp10SkipSpacesIcEEbPPKT_.exit14
  %1 = phi i8 [ %.pre, %entry ], [ %9, %_ZN6Assimp10SkipSpacesIcEEbPPKT_.exit14 ]
  %tmp.0 = phi ptr [ %0, %entry ], [ %in.addr.0.i.i8, %_ZN6Assimp10SkipSpacesIcEEbPPKT_.exit14 ]
  %end_of_definition.0 = phi i8 [ 0, %entry ], [ %end_of_definition.1, %_ZN6Assimp10SkipSpacesIcEEbPPKT_.exit14 ]
  %numComponents.0 = phi i64 [ 0, %entry ], [ %spec.select3, %_ZN6Assimp10SkipSpacesIcEEbPPKT_.exit14 ]
  switch i8 %1, label %if.end5 [
    i8 92, label %if.then.i
    i8 13, label %3
    i8 10, label %3
    i8 0, label %3
    i8 12, label %3
  ]

if.then.i:                                        ; preds = %while.body
  %incdec.ptr.i = getelementptr inbounds i8, ptr %tmp.0, i64 1
  %2 = load i8, ptr %incdec.ptr.i, align 1
  switch i8 %2, label %if.end5 [
    i8 13, label %if.then
    i8 10, label %if.then
    i8 0, label %if.then
    i8 12, label %if.then
  ]

if.then:                                          ; preds = %if.then.i, %if.then.i, %if.then.i, %if.then.i
  %add.ptr = getelementptr inbounds i8, ptr %tmp.0, i64 2
  br label %if.end5

3:                                                ; preds = %while.body, %while.body, %while.body, %while.body
  br label %if.end5

if.end5:                                          ; preds = %while.body, %if.then.i, %3, %if.then
  %tmp.1 = phi ptr [ %add.ptr, %if.then ], [ %tmp.0, %3 ], [ %tmp.0, %if.then.i ], [ %tmp.0, %while.body ]
  %end_of_definition.1 = phi i8 [ %end_of_definition.0, %if.then ], [ 1, %3 ], [ %end_of_definition.0, %if.then.i ], [ %end_of_definition.0, %while.body ]
  br label %while.cond.i.i

while.cond.i.i:                                   ; preds = %while.body.i.i, %if.end5
  %in.addr.0.i.i = phi ptr [ %tmp.1, %if.end5 ], [ %incdec.ptr.i.i, %while.body.i.i ]
  %4 = load i8, ptr %in.addr.0.i.i, align 1
  switch i8 %4, label %if.end8 [
    i8 32, label %while.body.i.i
    i8 9, label %while.body.i.i
    i8 13, label %while.end
    i8 10, label %while.end
    i8 0, label %while.end
    i8 12, label %while.end
  ]

while.body.i.i:                                   ; preds = %while.cond.i.i, %while.cond.i.i
  %incdec.ptr.i.i = getelementptr inbounds i8, ptr %in.addr.0.i.i, i64 1
  br label %while.cond.i.i, !llvm.loop !16

if.end8:                                          ; preds = %while.cond.i.i
  %5 = add i8 %4, -48
  %or.cond.i = icmp ult i8 %5, 10
  br i1 %or.cond.i, label %lor.end, label %switch.early.test

switch.early.test:                                ; preds = %if.end8
  switch i8 %4, label %lor.end.fold.split [
    i8 45, label %lor.end
    i8 43, label %lor.end
    i8 78, label %land.lhs.true.i
    i8 110, label %land.lhs.true.i
    i8 73, label %land.rhs.i
    i8 105, label %land.rhs.i
  ]

land.lhs.true.i:                                  ; preds = %switch.early.test, %switch.early.test
  %call.i.i = tail call i32 @strncasecmp(ptr noundef nonnull %in.addr.0.i.i, ptr noundef nonnull @.str.21, i64 noundef 3) #25
  %cmp4.i4 = icmp eq i32 %call.i.i, 0
  br i1 %cmp4.i4, label %lor.end, label %lor.rhs.i5

lor.rhs.i5:                                       ; preds = %land.lhs.true.i
  %cond.i = icmp eq i8 %4, 105
  br i1 %cond.i, label %land.rhs.i, label %lor.end

land.rhs.i:                                       ; preds = %switch.early.test, %switch.early.test, %lor.rhs.i5
  %call.i6.i = tail call i32 @strncasecmp(ptr noundef nonnull %in.addr.0.i.i, ptr noundef nonnull @.str.22, i64 noundef 3) #25
  %cmp13.i = icmp eq i32 %call.i6.i, 0
  br label %lor.end

lor.end.fold.split:                               ; preds = %switch.early.test
  br label %lor.end

lor.end:                                          ; preds = %switch.early.test, %switch.early.test, %lor.end.fold.split, %if.end8, %land.rhs.i, %lor.rhs.i5, %land.lhs.true.i
  %6 = phi i1 [ true, %switch.early.test ], [ true, %land.lhs.true.i ], [ %cmp13.i, %land.rhs.i ], [ false, %lor.rhs.i5 ], [ true, %if.end8 ], [ true, %switch.early.test ], [ false, %lor.end.fold.split ]
  br label %while.cond.i.i.i

while.cond.i.i.i:                                 ; preds = %while.body.i.i.i, %lor.end
  %7 = phi i8 [ %4, %lor.end ], [ %.pre45, %while.body.i.i.i ]
  %in.addr.0.i.i.i = phi ptr [ %in.addr.0.i.i, %lor.end ], [ %incdec.ptr.i.i.i, %while.body.i.i.i ]
  switch i8 %7, label %while.cond.i [
    i8 32, label %while.body.i.i.i
    i8 9, label %while.body.i.i.i
  ]

while.body.i.i.i:                                 ; preds = %while.cond.i.i.i, %while.cond.i.i.i
  %incdec.ptr.i.i.i = getelementptr inbounds i8, ptr %in.addr.0.i.i.i, i64 1
  %.pre45 = load i8, ptr %incdec.ptr.i.i.i, align 1
  br label %while.cond.i.i.i, !llvm.loop !16

while.cond.i:                                     ; preds = %while.cond.i.i.i, %while.body.i
  %8 = phi i8 [ %.pr, %while.body.i ], [ %7, %while.cond.i.i.i ]
  %storemerge.i = phi ptr [ %incdec.ptr.i6, %while.body.i ], [ %in.addr.0.i.i.i, %while.cond.i.i.i ]
  switch i8 %8, label %while.body.i [
    i8 32, label %_ZN6Assimp9SkipTokenERPKc.exit
    i8 9, label %_ZN6Assimp9SkipTokenERPKc.exit
    i8 13, label %_ZN6Assimp9SkipTokenERPKc.exit
    i8 10, label %_ZN6Assimp9SkipTokenERPKc.exit
    i8 0, label %_ZN6Assimp9SkipTokenERPKc.exit
    i8 12, label %_ZN6Assimp9SkipTokenERPKc.exit
  ]

while.body.i:                                     ; preds = %while.cond.i
  %incdec.ptr.i6 = getelementptr inbounds i8, ptr %storemerge.i, i64 1
  %.pr = load i8, ptr %incdec.ptr.i6, align 1
  br label %while.cond.i, !llvm.loop !17

_ZN6Assimp9SkipTokenERPKc.exit:                   ; preds = %while.cond.i, %while.cond.i, %while.cond.i, %while.cond.i, %while.cond.i, %while.cond.i
  %inc = zext i1 %6 to i64
  %spec.select3 = add i64 %numComponents.0, %inc
  br label %while.cond.i.i7

while.cond.i.i7:                                  ; preds = %while.body.i.i9, %_ZN6Assimp9SkipTokenERPKc.exit
  %9 = phi i8 [ %8, %_ZN6Assimp9SkipTokenERPKc.exit ], [ %.pre46, %while.body.i.i9 ]
  %in.addr.0.i.i8 = phi ptr [ %storemerge.i, %_ZN6Assimp9SkipTokenERPKc.exit ], [ %incdec.ptr.i.i10, %while.body.i.i9 ]
  switch i8 %9, label %_ZN6Assimp10SkipSpacesIcEEbPPKT_.exit14 [
    i8 32, label %while.body.i.i9
    i8 9, label %while.body.i.i9
    i8 13, label %while.end
    i8 10, label %while.end
    i8 0, label %while.end
    i8 12, label %while.end
  ]

while.body.i.i9:                                  ; preds = %while.cond.i.i7, %while.cond.i.i7
  %incdec.ptr.i.i10 = getelementptr inbounds i8, ptr %in.addr.0.i.i8, i64 1
  %.pre46 = load i8, ptr %incdec.ptr.i.i10, align 1
  br label %while.cond.i.i7, !llvm.loop !16

_ZN6Assimp10SkipSpacesIcEEbPPKT_.exit14:          ; preds = %while.cond.i.i7
  %10 = and i8 %end_of_definition.1, 1
  %tobool.not = icmp eq i8 %10, 0
  br i1 %tobool.not, label %while.body, label %while.end, !llvm.loop !18

while.end:                                        ; preds = %_ZN6Assimp10SkipSpacesIcEEbPPKT_.exit14, %while.cond.i.i, %while.cond.i.i, %while.cond.i.i, %while.cond.i.i, %while.cond.i.i7, %while.cond.i.i7, %while.cond.i.i7, %while.cond.i.i7
  %numComponents.2 = phi i64 [ %spec.select3, %while.cond.i.i7 ], [ %spec.select3, %while.cond.i.i7 ], [ %spec.select3, %while.cond.i.i7 ], [ %spec.select3, %while.cond.i.i7 ], [ %numComponents.0, %while.cond.i.i ], [ %numComponents.0, %while.cond.i.i ], [ %numComponents.0, %while.cond.i.i ], [ %numComponents.0, %while.cond.i.i ], [ %spec.select3, %_ZN6Assimp10SkipSpacesIcEEbPPKT_.exit14 ]
  ret i64 %numComponents.2
}